target datalayout = "e-m:e-p270:32:32-p271:32:32-p272:64:64-i64:64-i128:128-f80:128-n8:16:32:64-S128"
target triple = "x86_64-pc-linux-gnu"

%struct.AVProbeData = type { ptr, ptr, i32, ptr }

; Function Attrs: alwaysinline nounwind willreturn memory(none) uwtable
define internal zeroext i16 @av_bswap16(i16 noundef zeroext %0) #1 {
  %2 = alloca i16, align 2
  store i16 %0, ptr %2, align 2, !tbaa !96
  %3 = load i16, ptr %2, align 2, !tbaa !96
  %4 = zext i16 %3 to i32
  %5 = ashr i32 %4, 8
  %6 = load i16, ptr %2, align 2, !tbaa !96
  %7 = zext i16 %6 to i32
  %8 = shl i32 %7, 8
  %9 = or i32 %5, %8
  %10 = trunc i32 %9 to i16
  store i16 %10, ptr %2, align 2, !tbaa !96
  %11 = load i16, ptr %2, align 2, !tbaa !96
  ret i16 %11
}

; Function Attrs: alwaysinline nounwind willreturn memory(none) uwtable
define internal i32 @av_bswap32(i32 noundef %0) #1 {
  %2 = alloca i32, align 4
  store i32 %0, ptr %2, align 4, !tbaa !54
  %3 = load i32, ptr %2, align 4, !tbaa !54
  %4 = shl i32 %3, 8
  %5 = and i32 %4, 65280
  %6 = load i32, ptr %2, align 4, !tbaa !54
  %7 = lshr i32 %6, 8
  %8 = and i32 %7, 255
  %9 = or i32 %5, %8
  %10 = shl i32 %9, 16
  %11 = load i32, ptr %2, align 4, !tbaa !54
  %12 = lshr i32 %11, 16
  %13 = shl i32 %12, 8
  %14 = and i32 %13, 65280
  %15 = load i32, ptr %2, align 4, !tbaa !54
  %16 = lshr i32 %15, 16
  %17 = lshr i32 %16, 8
  %18 = and i32 %17, 255
  %19 = or i32 %14, %18
  %20 = or i32 %10, %19
  ret i32 %20
}

; Function Attrs: nounwind uwtable
define internal i32 @aax_probe(ptr noundef %0) #0 {
  %2 = alloca i32, align 4
  %3 = alloca ptr, align 8
  store ptr %0, ptr %3, align 8, !tbaa !4
  %4 = load ptr, ptr %3, align 8, !tbaa !4
  %5 = getelementptr inbounds nuw %struct.AVProbeData, ptr %4, i32 0, i32 1
  %6 = load ptr, ptr %5, align 8, !tbaa !9
  %7 = load i32, ptr %6, align 1, !tbaa !13
  %8 = call i32 @av_bswap32(i32 noundef %7) #7
  %9 = icmp ne i32 %8, 1079333958
  br i1 %9, label %10, label %11

10:                                               ; preds = %1
  store i32 0, ptr %2, align 4
  br label %40

11:                                               ; preds = %1
  %12 = load ptr, ptr %3, align 8, !tbaa !4
  %13 = getelementptr inbounds nuw %struct.AVProbeData, ptr %12, i32 0, i32 1
  %14 = load ptr, ptr %13, align 8, !tbaa !9
  %15 = getelementptr inbounds i8, ptr %14, i64 4
  %16 = load i32, ptr %15, align 1, !tbaa !13
  %17 = call i32 @av_bswap32(i32 noundef %16) #7
  %18 = icmp eq i32 %17, 0
  br i1 %18, label %19, label %20

19:                                               ; preds = %11
  store i32 0, ptr %2, align 4
  br label %40

20:                                               ; preds = %11
  %21 = load ptr, ptr %3, align 8, !tbaa !4
  %22 = getelementptr inbounds nuw %struct.AVProbeData, ptr %21, i32 0, i32 1
  %23 = load ptr, ptr %22, align 8, !tbaa !9
  %24 = getelementptr inbounds i8, ptr %23, i64 8
  %25 = load i16, ptr %24, align 1, !tbaa !13
  %26 = call zeroext i16 @av_bswap16(i16 noundef zeroext %25) #7
  %27 = zext i16 %26 to i32
  %28 = icmp sgt i32 %27, 1
  br i1 %28, label %29, label %30

29:                                               ; preds = %20
  store i32 0, ptr %2, align 4
  br label %40

30:                                               ; preds = %20
  %31 = load ptr, ptr %3, align 8, !tbaa !4
  %32 = getelementptr inbounds nuw %struct.AVProbeData, ptr %31, i32 0, i32 1
  %33 = load ptr, ptr %32, align 8, !tbaa !9
  %34 = getelementptr inbounds i8, ptr %33, i64 28
  %35 = load i32, ptr %34, align 1, !tbaa !13
  %36 = call i32 @av_bswap32(i32 noundef %35) #7
  %37 = icmp ult i32 %36, 1
  br i1 %37, label %38, label %39

38:                                               ; preds = %30
  store i32 0, ptr %2, align 4
  br label %40

39:                                               ; preds = %30
  store i32 100, ptr %2, align 4
  br label %40

40:                                               ; preds = %39, %38, %29, %19, %10
  %41 = load i32, ptr %2, align 4
  ret i32 %41
}