; Function Attrs: mustprogress nofree norecurse nosync nounwind willreturn memory(read, inaccessiblemem: none) uwtable
define internal range(i32 0, 101) i32 @aax_probe(ptr noundef readonly captures(none) %0) #0 {
  %2 = getelementptr inbounds nuw i8, ptr %0, i64 8
  %3 = load ptr, ptr %2, align 8, !tbaa !4
  %4 = load i32, ptr %3, align 1, !tbaa !11
  %.not = icmp eq i32 %4, 1179931968
  br i1 %.not, label %5, label %18

5:                                                ; preds = %1
  %6 = getelementptr inbounds nuw i8, ptr %3, i64 4
  %7 = load i32, ptr %6, align 1, !tbaa !11
  %8 = icmp eq i32 %7, 0
  br i1 %8, label %18, label %9

9:                                                ; preds = %5
  %10 = getelementptr inbounds nuw i8, ptr %3, i64 8
  %11 = load i16, ptr %10, align 1, !tbaa !11
  %12 = tail call i16 @llvm.bswap.i16(i16 %11)
  %13 = icmp ugt i16 %12, 1
  br i1 %13, label %18, label %14

14:                                               ; preds = %9
  %15 = getelementptr inbounds nuw i8, ptr %3, i64 28
  %16 = load i32, ptr %15, align 1, !tbaa !11
  %17 = icmp eq i32 %16, 0
  %. = select i1 %17, i32 0, i32 100
  br label %18

18:                                               ; preds = %14, %9, %5, %1
  %.0 = phi i32 [ 0, %1 ], [ 0, %5 ], [ 0, %9 ], [ %., %14 ]
  ret i32 %.0
}